; Function Attrs: mustprogress uwtable
define void @_ZN4LIEF3DEX5FieldC2ERKS1_(ptr noundef nonnull align 8 dereferenceable(65) %0, ptr noundef nonnull align 8 dereferenceable(65) %1) unnamed_addr #2 align 2 personality ptr @__gxx_personality_v0 {
  tail call void @_ZN4LIEF6ObjectC2ERKS0_(ptr noundef nonnull align 8 dereferenceable(8) %0, ptr noundef nonnull align 8 dereferenceable(8) %1)
  store ptr getelementptr inbounds ({ [7 x ptr] }, ptr @_ZTVN4LIEF3DEX5FieldE, i64 0, i32 0, i64 2), ptr %0, align 8
  %3 = getelementptr inbounds i8, ptr %0, i64 8
  %4 = getelementptr inbounds i8, ptr %1, i64 8
  invoke void @_ZNSt7__cxx1112basic_stringIcSt11char_traitsIcESaIcEEC1ERKS4_(ptr noundef nonnull align 8 dereferenceable(32) %3, ptr noundef nonnull align 8 dereferenceable(32) %4)
          to label %5 unwind label %8

5:                                                ; preds = %2
  %6 = getelementptr inbounds i8, ptr %0, i64 40
  %7 = getelementptr inbounds i8, ptr %1, i64 40
  tail call void @llvm.memcpy.p0.p0.i64(ptr noundef nonnull align 8 dereferenceable(25) %6, ptr noundef nonnull align 8 dereferenceable(25) %7, i64 25, i1 false)
  ret void

8:                                                ; preds = %2
  %9 = landingpad { ptr, i32 }
          cleanup
  tail call void @_ZN4LIEF6ObjectD2Ev(ptr noundef nonnull align 8 dereferenceable(8) %0) #18
  resume { ptr, i32 } %9
}